   1              		.cpu arm7tdmi
   2              		.fpu softvfp
   3              		.eabi_attribute 20, 1
   4              		.eabi_attribute 21, 1
   5              		.eabi_attribute 23, 3
   6              		.eabi_attribute 24, 1
   7              		.eabi_attribute 25, 1
   8              		.eabi_attribute 26, 1
   9              		.eabi_attribute 30, 6
  10              		.eabi_attribute 18, 4
  11              		.file	"main.c"
  21              	.Ltext0:
  22              		.file 1 "../main.c"
 1847              		.align	2
 1850              	Screen:
 1851 0000 00000000 		.word	screen
 1852              		.text
 1853              		.align	2
 1854              		.global	write
 1856              	write:
 1857              	.LFB0:
   1:../main.c     **** #include "44b.h"
   2:../main.c     **** #include "led.h"
   3:../main.c     **** #include "boton.h"
   4:../main.c     **** 
   5:../main.c     **** extern char screen[];
   6:../main.c     **** char *Screen = (char*) screen;
   7:../main.c     **** 
   8:../main.c     **** extern void DoSWI  (void);
   9:../main.c     **** extern void DoUndef(void);
  10:../main.c     **** extern void DoDabort(void);
  11:../main.c     **** 
  12:../main.c     **** void ISR_SWI(void) __attribute__ ((interrupt ("SWI")));
  13:../main.c     **** void ISR_Undef(void) __attribute__ ((interrupt ("UNDEF")));
  14:../main.c     **** void ISR_FIQ(void) __attribute__ ((interrupt ("FIQ")));
  15:../main.c     **** void ISR_Pabort(void) __attribute__ ((interrupt ("ABORT")));
  16:../main.c     **** void ISR_Dabort(void) __attribute__ ((interrupt ("ABORT")));
  17:../main.c     **** //void ISR_IRQ(void) __attribute__ ((interrupt ("IRQ")));
  18:../main.c     **** 
  19:../main.c     ****  
  20:../main.c     **** 
  21:../main.c     **** void write(char* text, char* address)
  22:../main.c     **** {
 1858              		.loc 1 22 0
 1859              		.cfi_startproc
 1860              		@ Function supports interworking.
 1861              		@ args = 0, pretend = 0, frame = 8
 1862              		@ frame_needed = 1, uses_anonymous_args = 0
 1863 0000 0DC0A0E1 		mov	ip, sp
 1864              	.LCFI0:
 1865              		.cfi_def_cfa_register 12
 1866 0004 00D82DE9 		stmfd	sp!, {fp, ip, lr, pc}
 1867 0008 04B04CE2 		sub	fp, ip, #4
 1868              		.cfi_offset 14, -8
 1869              		.cfi_offset 13, -12
 1870              		.cfi_offset 11, -16
 1871              	.LCFI1:
 1872              		.cfi_def_cfa 11, 4
 1873 000c 08D04DE2 		sub	sp, sp, #8
 1874 0010 10000BE5 		str	r0, [fp, #-16]
 1875 0014 14100BE5 		str	r1, [fp, #-20]
  23:../main.c     **** 	while( *text != 0 ){
 1876              		.loc 1 23 0
 1877 0018 090000EA 		b	.L2
 1878              	.L3:
  24:../main.c     **** 		*address++ = *text++;
 1879              		.loc 1 24 0
 1880 001c 10301BE5 		ldr	r3, [fp, #-16]
 1881 0020 0020D3E5 		ldrb	r2, [r3, #0]	@ zero_extendqisi2
 1882 0024 14301BE5 		ldr	r3, [fp, #-20]
 1883 0028 0020C3E5 		strb	r2, [r3, #0]
 1884 002c 14301BE5 		ldr	r3, [fp, #-20]
 1885 0030 013083E2 		add	r3, r3, #1
 1886 0034 14300BE5 		str	r3, [fp, #-20]
 1887 0038 10301BE5 		ldr	r3, [fp, #-16]
 1888 003c 013083E2 		add	r3, r3, #1
 1889 0040 10300BE5 		str	r3, [fp, #-16]
 1890              	.L2:
  23:../main.c     **** 	while( *text != 0 ){
 1891              		.loc 1 23 0 discriminator 1
 1892 0044 10301BE5 		ldr	r3, [fp, #-16]
 1893 0048 0030D3E5 		ldrb	r3, [r3, #0]	@ zero_extendqisi2
 1894 004c 000053E3 		cmp	r3, #0
 1895 0050 F1FFFF1A 		bne	.L3
  25:../main.c     **** 	}
  26:../main.c     **** }
 1896              		.loc 1 26 0
 1897 0054 0CD04BE2 		sub	sp, fp, #12
 1898 0058 00689DE8 		ldmfd	sp, {fp, sp, lr}
 1899 005c 1EFF2FE1 		bx	lr
 1900              		.cfi_endproc
 1901              	.LFE0:
 1903              		.section	.rodata
 1904              		.align	2
 1905              	.LC0:
 1906 0000 556E6465 		.ascii	"Undef \000\000"
 1906      66200000 
 1907              		.text
 1908              		.align	2
 1909              		.global	ISR_Undef
 1911              	ISR_Undef:
 1912              	.LFB1:
  27:../main.c     **** 
  28:../main.c     **** 
  29:../main.c     **** void ISR_Undef(void)
  30:../main.c     **** {
 1913              		.loc 1 30 0
 1914              		.cfi_startproc
 1915              		@ ARM Exception Handler.
 1916              		@ args = 0, pretend = 0, frame = 0
 1917              		@ frame_needed = 1, uses_anonymous_args = 0
 1918 0060 04C02DE5 		str	ip, [sp, #-4]!
 1919 0064 0DC0A0E1 		mov	ip, sp
 1920              	.LCFI2:
 1921              		.cfi_def_cfa_register 12
 1922 0068 0FD82DE9 		stmfd	sp!, {r0, r1, r2, r3, fp, ip, lr, pc}
 1923 006c 04B04CE2 		sub	fp, ip, #4
 1924              		.cfi_offset 14, -8
 1925              		.cfi_offset 13, -12
 1926              		.cfi_offset 11, -16
 1927              		.cfi_offset 3, -20
 1928              		.cfi_offset 2, -24
 1929              		.cfi_offset 1, -28
 1930              		.cfi_offset 0, -32
 1931              	.LCFI3:
 1932              		.cfi_def_cfa 11, 4
  31:../main.c     ****     write("Undef \0",Screen);
 1933              		.loc 1 31 0
 1934 0070 1C309FE5 		ldr	r3, .L5
 1935 0074 003093E5 		ldr	r3, [r3, #0]
 1936 0078 18009FE5 		ldr	r0, .L5+4
 1937 007c 0310A0E1 		mov	r1, r3
 1938 0080 FEFFFFEB 		bl	write
  32:../main.c     **** }
 1939              		.loc 1 32 0
 1940 0084 1CD04BE2 		sub	sp, fp, #28
 1941 0088 0F689DE8 		ldmfd	sp, {r0, r1, r2, r3, fp, sp, lr}
 1942 008c 04C09DE4 		ldmfd	sp!, {ip}
 1943 0090 0EF0B0E1 		movs	pc, lr
 1944              	.L6:
 1945              		.align	2
 1946              	.L5:
 1947 0094 00000000 		.word	Screen
 1948 0098 00000000 		.word	.LC0
 1949              		.cfi_endproc
 1950              	.LFE1:
 1952              		.section	.rodata
 1953              		.align	2
 1954              	.LC1:
 1955 0008 46495120 		.ascii	"FIQ   \000\000"
 1955      20200000 
 1956              		.text
 1957              		.align	2
 1958              		.global	ISR_FIQ
 1960              	ISR_FIQ:
 1961              	.LFB2:
  33:../main.c     **** 
  34:../main.c     **** 
  35:../main.c     **** void ISR_FIQ(void)
  36:../main.c     **** {
 1962              		.loc 1 36 0
 1963              		.cfi_startproc
 1964              		@ Fast Interrupt Service Routine.
 1965              		@ args = 0, pretend = 0, frame = 0
 1966              		@ frame_needed = 1, uses_anonymous_args = 0
 1967 009c 04C02DE5 		str	ip, [sp, #-4]!
 1968 00a0 0DC0A0E1 		mov	ip, sp
 1969              	.LCFI4:
 1970              		.cfi_def_cfa_register 12
 1971 00a4 0FD82DE9 		stmfd	sp!, {r0, r1, r2, r3, fp, ip, lr, pc}
 1972 00a8 04B04CE2 		sub	fp, ip, #4
 1973              		.cfi_offset 14, -8
 1974              		.cfi_offset 13, -12
 1975              		.cfi_offset 11, -16
 1976              		.cfi_offset 3, -20
 1977              		.cfi_offset 2, -24
 1978              		.cfi_offset 1, -28
 1979              		.cfi_offset 0, -32
 1980              	.LCFI5:
 1981              		.cfi_def_cfa 11, 4
  37:../main.c     ****     write("FIQ   \0",Screen);
 1982              		.loc 1 37 0
 1983 00ac 1C309FE5 		ldr	r3, .L8
 1984 00b0 003093E5 		ldr	r3, [r3, #0]
 1985 00b4 18009FE5 		ldr	r0, .L8+4
 1986 00b8 0310A0E1 		mov	r1, r3
 1987 00bc FEFFFFEB 		bl	write
  38:../main.c     **** }
 1988              		.loc 1 38 0
 1989 00c0 1CD04BE2 		sub	sp, fp, #28
 1990 00c4 0F689DE8 		ldmfd	sp, {r0, r1, r2, r3, fp, sp, lr}
 1991 00c8 04C09DE4 		ldmfd	sp!, {ip}
 1992 00cc 04F05EE2 		subs	pc, lr, #4
 1993              	.L9:
 1994              		.align	2
 1995              	.L8:
 1996 00d0 00000000 		.word	Screen
 1997 00d4 08000000 		.word	.LC1
 1998              		.cfi_endproc
 1999              	.LFE2:
 2001              		.section	.rodata
 2002              		.align	2
 2003              	.LC2:
 2004 0010 53574920 		.ascii	"SWI   \000\000"
 2004      20200000 
 2005              		.text
 2006              		.align	2
 2007              		.global	ISR_SWI
 2009              	ISR_SWI:
 2010              	.LFB3:
  39:../main.c     **** 
  40:../main.c     **** void ISR_SWI(void)
  41:../main.c     **** {
 2011              		.loc 1 41 0
 2012              		.cfi_startproc
 2013              		@ ARM Exception Handler.
 2014              		@ args = 0, pretend = 0, frame = 0
 2015              		@ frame_needed = 1, uses_anonymous_args = 0
 2016 00d8 04C02DE5 		str	ip, [sp, #-4]!
 2017 00dc 0DC0A0E1 		mov	ip, sp
 2018              	.LCFI6:
 2019              		.cfi_def_cfa_register 12
 2020 00e0 0FD82DE9 		stmfd	sp!, {r0, r1, r2, r3, fp, ip, lr, pc}
 2021 00e4 04B04CE2 		sub	fp, ip, #4
 2022              		.cfi_offset 14, -8
 2023              		.cfi_offset 13, -12
 2024              		.cfi_offset 11, -16
 2025              		.cfi_offset 3, -20
 2026              		.cfi_offset 2, -24
 2027              		.cfi_offset 1, -28
 2028              		.cfi_offset 0, -32
 2029              	.LCFI7:
 2030              		.cfi_def_cfa 11, 4
  42:../main.c     ****     write("SWI   \0",Screen);
 2031              		.loc 1 42 0
 2032 00e8 1C309FE5 		ldr	r3, .L11
 2033 00ec 003093E5 		ldr	r3, [r3, #0]
 2034 00f0 18009FE5 		ldr	r0, .L11+4
 2035 00f4 0310A0E1 		mov	r1, r3
 2036 00f8 FEFFFFEB 		bl	write
  43:../main.c     **** }
 2037              		.loc 1 43 0
 2038 00fc 1CD04BE2 		sub	sp, fp, #28
 2039 0100 0F689DE8 		ldmfd	sp, {r0, r1, r2, r3, fp, sp, lr}
 2040 0104 04C09DE4 		ldmfd	sp!, {ip}
 2041 0108 0EF0B0E1 		movs	pc, lr
 2042              	.L12:
 2043              		.align	2
 2044              	.L11:
 2045 010c 00000000 		.word	Screen
 2046 0110 10000000 		.word	.LC2
 2047              		.cfi_endproc
 2048              	.LFE3:
 2050              		.section	.rodata
 2051              		.align	2
 2052              	.LC3:
 2053 0018 5061626F 		.ascii	"Pabort\000\000"
 2053      72740000 
 2054              		.text
 2055              		.align	2
 2056              		.global	ISR_Pabort
 2058              	ISR_Pabort:
 2059              	.LFB4:
  44:../main.c     **** 
  45:../main.c     **** void ISR_Pabort(void)
  46:../main.c     **** {
 2060              		.loc 1 46 0
 2061              		.cfi_startproc
 2062              		@ Interrupt Service Routine.
 2063              		@ args = 0, pretend = 0, frame = 0
 2064              		@ frame_needed = 1, uses_anonymous_args = 0
 2065 0114 04C02DE5 		str	ip, [sp, #-4]!
 2066 0118 0DC0A0E1 		mov	ip, sp
 2067              	.LCFI8:
 2068              		.cfi_def_cfa_register 12
 2069 011c 0FD82DE9 		stmfd	sp!, {r0, r1, r2, r3, fp, ip, lr, pc}
 2070 0120 04B04CE2 		sub	fp, ip, #4
 2071              		.cfi_offset 14, -8
 2072              		.cfi_offset 13, -12
 2073              		.cfi_offset 11, -16
 2074              		.cfi_offset 3, -20
 2075              		.cfi_offset 2, -24
 2076              		.cfi_offset 1, -28
 2077              		.cfi_offset 0, -32
 2078              	.LCFI9:
 2079              		.cfi_def_cfa 11, 4
  47:../main.c     ****     write("Pabort\0",Screen);
 2080              		.loc 1 47 0
 2081 0124 1C309FE5 		ldr	r3, .L14
 2082 0128 003093E5 		ldr	r3, [r3, #0]
 2083 012c 18009FE5 		ldr	r0, .L14+4
 2084 0130 0310A0E1 		mov	r1, r3
 2085 0134 FEFFFFEB 		bl	write
  48:../main.c     **** }
 2086              		.loc 1 48 0
 2087 0138 1CD04BE2 		sub	sp, fp, #28
 2088 013c 0F689DE8 		ldmfd	sp, {r0, r1, r2, r3, fp, sp, lr}
 2089 0140 04C09DE4 		ldmfd	sp!, {ip}
 2090 0144 04F05EE2 		subs	pc, lr, #4
 2091              	.L15:
 2092              		.align	2
 2093              	.L14:
 2094 0148 00000000 		.word	Screen
 2095 014c 18000000 		.word	.LC3
 2096              		.cfi_endproc
 2097              	.LFE4:
 2099              		.section	.rodata
 2100              		.align	2
 2101              	.LC4:
 2102 0020 4461626F 		.ascii	"Dabort\000\000"
 2102      72740000 
 2103              		.text
 2104              		.align	2
 2105              		.global	ISR_Dabort
 2107              	ISR_Dabort:
 2108              	.LFB5:
  49:../main.c     **** 
  50:../main.c     **** void ISR_Dabort(void)
  51:../main.c     **** {
 2109              		.loc 1 51 0
 2110              		.cfi_startproc
 2111              		@ Interrupt Service Routine.
 2112              		@ args = 0, pretend = 0, frame = 0
 2113              		@ frame_needed = 1, uses_anonymous_args = 0
 2114 0150 04C02DE5 		str	ip, [sp, #-4]!
 2115 0154 0DC0A0E1 		mov	ip, sp
 2116              	.LCFI10:
 2117              		.cfi_def_cfa_register 12
 2118 0158 0FD82DE9 		stmfd	sp!, {r0, r1, r2, r3, fp, ip, lr, pc}
 2119 015c 04B04CE2 		sub	fp, ip, #4
 2120              		.cfi_offset 14, -8
 2121              		.cfi_offset 13, -12
 2122              		.cfi_offset 11, -16
 2123              		.cfi_offset 3, -20
 2124              		.cfi_offset 2, -24
 2125              		.cfi_offset 1, -28
 2126              		.cfi_offset 0, -32
 2127              	.LCFI11:
 2128              		.cfi_def_cfa 11, 4
  52:../main.c     ****     write("Dabort\0",Screen);
 2129              		.loc 1 52 0
 2130 0160 1C309FE5 		ldr	r3, .L17
 2131 0164 003093E5 		ldr	r3, [r3, #0]
 2132 0168 18009FE5 		ldr	r0, .L17+4
 2133 016c 0310A0E1 		mov	r1, r3
 2134 0170 FEFFFFEB 		bl	write
  53:../main.c     **** }
 2135              		.loc 1 53 0
 2136 0174 1CD04BE2 		sub	sp, fp, #28
 2137 0178 0F689DE8 		ldmfd	sp, {r0, r1, r2, r3, fp, sp, lr}
 2138 017c 04C09DE4 		ldmfd	sp!, {ip}
 2139 0180 04F05EE2 		subs	pc, lr, #4
 2140              	.L18:
 2141              		.align	2
 2142              	.L17:
 2143 0184 00000000 		.word	Screen
 2144 0188 20000000 		.word	.LC4
 2145              		.cfi_endproc
 2146              	.LFE5:
 2148              		.align	2
 2149              		.global	InitPorts
 2151              	InitPorts:
 2152              	.LFB6:
  54:../main.c     **** 
  55:../main.c     **** /* Configuara Puerto G (botones) y puerto B (leds) */
  56:../main.c     **** void InitPorts(void)
  57:../main.c     **** {
 2153              		.loc 1 57 0
 2154              		.cfi_startproc
 2155              		@ Function supports interworking.
 2156              		@ args = 0, pretend = 0, frame = 0
 2157              		@ frame_needed = 1, uses_anonymous_args = 0
 2158 018c 0DC0A0E1 		mov	ip, sp
 2159              	.LCFI12:
 2160              		.cfi_def_cfa_register 12
 2161 0190 00D82DE9 		stmfd	sp!, {fp, ip, lr, pc}
 2162 0194 04B04CE2 		sub	fp, ip, #4
 2163              		.cfi_offset 14, -8
 2164              		.cfi_offset 13, -12
 2165              		.cfi_offset 11, -16
 2166              	.LCFI13:
 2167              		.cfi_def_cfa 11, 4
  58:../main.c     **** 	/* Configura bits 9 y 10 de PCONB como salida */
  59:../main.c     **** 	 rPCONB = 0x1cf;
 2168              		.loc 1 59 0
 2169 0198 34309FE5 		ldr	r3, .L20
 2170 019c 34209FE5 		ldr	r2, .L20+4
 2171 01a0 002083E5 		str	r2, [r3, #0]
  60:../main.c     **** 
  61:../main.c     ****     /* Configuracion del puerto G */
  62:../main.c     ****     rPCONG  = 0xffff;        		// Establece la funcion de los pines (EINT0-7)
 2172              		.loc 1 62 0
 2173 01a4 30309FE5 		ldr	r3, .L20+8
 2174 01a8 30209FE5 		ldr	r2, .L20+12
 2175 01ac 002083E5 		str	r2, [r3, #0]
  63:../main.c     **** 	rPUPG   = 0x0;                  // Habilita el "pull up" del puerto
 2176              		.loc 1 63 0
 2177 01b0 2C309FE5 		ldr	r3, .L20+16
 2178 01b4 0020A0E3 		mov	r2, #0
 2179 01b8 002083E5 		str	r2, [r3, #0]
  64:../main.c     **** 	//rEXTINT = rEXTINT|0x22222222;   // Configura las lineas de int. como de flanco de bajada
  65:../main.c     **** 	rEXTINT=0x22222222;
 2180              		.loc 1 65 0
 2181 01bc 24309FE5 		ldr	r3, .L20+20
 2182 01c0 24209FE5 		ldr	r2, .L20+24
 2183 01c4 002083E5 		str	r2, [r3, #0]
  66:../main.c     **** 
  67:../main.c     **** 
  68:../main.c     **** 
  69:../main.c     **** 
  70:../main.c     **** 
  71:../main.c     **** }
 2184              		.loc 1 71 0
 2185 01c8 0CD04BE2 		sub	sp, fp, #12
 2186 01cc 00689DE8 		ldmfd	sp, {fp, sp, lr}
 2187 01d0 1EFF2FE1 		bx	lr
 2188              	.L21:
 2189              		.align	2
 2190              	.L20:
 2191 01d4 0800D201 		.word	30539784
 2192 01d8 CF010000 		.word	463
 2193 01dc 4000D201 		.word	30539840
 2194 01e0 FFFF0000 		.word	65535
 2195 01e4 4800D201 		.word	30539848
 2196 01e8 5000D201 		.word	30539856
 2197 01ec 22222222 		.word	572662306
 2198              		.cfi_endproc
 2199              	.LFE6:
 2201              		.align	2
 2202              		.global	IntInit
 2204              	IntInit:
 2205              	.LFB7:
  72:../main.c     **** 
  73:../main.c     **** void IntInit(void){
 2206              		.loc 1 73 0
 2207              		.cfi_startproc
 2208              		@ Function supports interworking.
 2209              		@ args = 0, pretend = 0, frame = 0
 2210              		@ frame_needed = 1, uses_anonymous_args = 0
 2211 01f0 0DC0A0E1 		mov	ip, sp
 2212              	.LCFI14:
 2213              		.cfi_def_cfa_register 12
 2214 01f4 00D82DE9 		stmfd	sp!, {fp, ip, lr, pc}
 2215 01f8 04B04CE2 		sub	fp, ip, #4
 2216              		.cfi_offset 14, -8
 2217              		.cfi_offset 13, -12
 2218              		.cfi_offset 11, -16
 2219              	.LCFI15:
 2220              		.cfi_def_cfa 11, 4
  74:../main.c     **** 
  75:../main.c     **** 	 /*	I_ISPC: Registro de 26 bits.
  76:../main.c     **** 		    	Si escribimos un "1" decimos que todas las interrupciones pendientes
  77:../main.c     **** 		    	han sido atendidas. Escribir en este resgistro escribe en INTPND.	*/
  78:../main.c     **** 		    	rI_ISPC=0xFFFFFFFF	;/* Limpiamos todas las interrupciones pendientes */
 2221              		.loc 1 78 0
 2222 01fc 64309FE5 		ldr	r3, .L23
 2223 0200 0020E0E3 		mvn	r2, #0
 2224 0204 002083E5 		str	r2, [r3, #0]
  79:../main.c     **** 		    	rEXTINTPND = 0xf;       // Borra EXTINTPND escribiendo 1s en el propio registro
 2225              		.loc 1 79 0
 2226 0208 5C309FE5 		ldr	r3, .L23+4
 2227 020c 0F20A0E3 		mov	r2, #15
 2228 0210 002083E5 		str	r2, [r3, #0]
  80:../main.c     **** 
  81:../main.c     **** 	/*	Manejo del controlador de interrupciones, hay que configurar los siguiente parámetros:
  82:../main.c     **** 	INTCON: 3 bits: Modo Vectorizado, Habilita IRQ, Habilita FIQ (Activas a baja)
  83:../main.c     **** 	Activamos sólo la IRQ y en modo NO vectorizado */
  84:../main.c     **** 	rINTCON  =0x5;
 2229              		.loc 1 84 0
 2230 0214 1E36A0E3 		mov	r3, #31457280
 2231 0218 0520A0E3 		mov	r2, #5
 2232 021c 002083E5 		str	r2, [r3, #0]
  85:../main.c     **** 
  86:../main.c     **** 	/*	INTMOD: Registro con un bit por línea. Si ponemos a 0 sus valores decimos que
  87:../main.c     **** 	estamos usando IRQ, si ponemos 1 decimos que estamos usando FIQ para esa línea.
  88:../main.c     **** 	Ponemos   a 0. */
  89:../main.c     **** 	rINTMOD=0x0;			/* Inicializamos las interrupciones */
 2233              		.loc 1 89 0
 2234 0220 48309FE5 		ldr	r3, .L23+8
 2235 0224 0020A0E3 		mov	r2, #0
 2236 0228 002083E5 		str	r2, [r3, #0]
  90:../main.c     **** 
  91:../main.c     **** 	/*	INTMSK(26): Máscara de interrupciones del controlador, activamos las líneas:
  92:../main.c     **** 		    	EINT4/5/6/7 poniendo su bit a 0.	*/
  93:../main.c     **** 	rINTMSK = ~(BIT_GLOBAL|BIT_EINT4567); // Emascara todas las lineas excepto eint4567 y el bit globa
 2237              		.loc 1 93 0
 2238 022c 40309FE5 		ldr	r3, .L23+12
 2239 0230 4226E0E3 		mvn	r2, #69206016
 2240 0234 002083E5 		str	r2, [r3, #0]
  94:../main.c     **** 
  95:../main.c     **** 	InitPorts();
 2241              		.loc 1 95 0
 2242 0238 FEFFFFEB 		bl	InitPorts
  96:../main.c     **** 
  97:../main.c     **** 
  98:../main.c     **** 	  /* Por precaucion, se vuelven a borrar los bits de INTPND y EXTINTPND */
  99:../main.c     **** 	      rI_ISPC    |= (BIT_EINT4567);
 2243              		.loc 1 99 0
 2244 023c 24309FE5 		ldr	r3, .L23
 2245 0240 20209FE5 		ldr	r2, .L23
 2246 0244 002092E5 		ldr	r2, [r2, #0]
 2247 0248 022682E3 		orr	r2, r2, #2097152
 2248 024c 002083E5 		str	r2, [r3, #0]
 100:../main.c     **** 	    	rEXTINTPND = 0xf;
 2249              		.loc 1 100 0
 2250 0250 14309FE5 		ldr	r3, .L23+4
 2251 0254 0F20A0E3 		mov	r2, #15
 2252 0258 002083E5 		str	r2, [r3, #0]
 101:../main.c     **** }
 2253              		.loc 1 101 0
 2254 025c 0CD04BE2 		sub	sp, fp, #12
 2255 0260 00689DE8 		ldmfd	sp, {fp, sp, lr}
 2256 0264 1EFF2FE1 		bx	lr
 2257              	.L24:
 2258              		.align	2
 2259              	.L23:
 2260 0268 2400E001 		.word	31457316
 2261 026c 5400D201 		.word	30539860
 2262 0270 0800E001 		.word	31457288
 2263 0274 0C00E001 		.word	31457292
 2264              		.cfi_endproc
 2265              	.LFE7:
 2267              		.align	2
 2268              		.global	main
 2270              	main:
 2271              	.LFB8:
 102:../main.c     **** 
 103:../main.c     **** 
 104:../main.c     **** 
 105:../main.c     **** 
 106:../main.c     **** 
 107:../main.c     **** int main(void){
 2272              		.loc 1 107 0
 2273              		.cfi_startproc
 2274              		@ Function supports interworking.
 2275              		@ args = 0, pretend = 0, frame = 0
 2276              		@ frame_needed = 1, uses_anonymous_args = 0
 2277 0278 0DC0A0E1 		mov	ip, sp
 2278              	.LCFI16:
 2279              		.cfi_def_cfa_register 12
 2280 027c 00D82DE9 		stmfd	sp!, {fp, ip, lr, pc}
 2281 0280 04B04CE2 		sub	fp, ip, #4
 2282              		.cfi_offset 14, -8
 2283              		.cfi_offset 13, -12
 2284              		.cfi_offset 11, -16
 2285              	.LCFI17:
 2286              		.cfi_def_cfa 11, 4
 108:../main.c     **** 		IntInit();
 2287              		.loc 1 108 0
 2288 0284 FEFFFFEB 		bl	IntInit
 109:../main.c     **** 		init_leds();
 2289              		.loc 1 109 0
 2290 0288 FEFFFFEB 		bl	init_leds
 110:../main.c     **** 	     DoUndef();
 2291              		.loc 1 110 0
 2292 028c FEFFFFEB 		bl	DoUndef
 111:../main.c     **** 	     DoSWI();
 2293              		.loc 1 111 0
 2294 0290 FEFFFFEB 		bl	DoSWI
 112:../main.c     **** 	     DoDabort();
 2295              		.loc 1 112 0
 2296 0294 FEFFFFEB 		bl	DoDabort
 2297              	.L26:
 113:../main.c     **** 
 114:../main.c     **** 	while(1);
 2298              		.loc 1 114 0 discriminator 1
 2299 0298 FEFFFFEA 		b	.L26
 2300              		.cfi_endproc
 2301              	.LFE8:
 2303              	.Letext0: