   1              		.cpu arm7tdmi
   2              		.fpu softvfp
   3              		.eabi_attribute 20, 1
   4              		.eabi_attribute 21, 1
   5              		.eabi_attribute 23, 3
   6              		.eabi_attribute 24, 1
   7              		.eabi_attribute 25, 1
   8              		.eabi_attribute 26, 1
   9              		.eabi_attribute 30, 6
  10              		.eabi_attribute 18, 4
  11              		.file	"cola.c"
  21              	.Ltext0:
  22              		.file 1 "../cola.c"
 1976              		.align	2
 1977              		.global	inserta
 1979              	inserta:
 1980              	.LFB0:
   1:../cola.c     **** /*
   2:../cola.c     ****  * cola.c
   3:../cola.c     ****  *
   4:../cola.c     ****  *  Created on: 06/05/2014
   5:../cola.c     ****  *      Author: usuario_local
   6:../cola.c     ****  */
   7:../cola.c     **** 
   8:../cola.c     **** #include "cola.h"
   9:../cola.c     **** 
  10:../cola.c     **** void inserta (tCola* cola, char c) {
 1981              		.loc 1 10 0
 1982              		.cfi_startproc
 1983              		@ Function supports interworking.
 1984              		@ args = 0, pretend = 0, frame = 8
 1985              		@ frame_needed = 1, uses_anonymous_args = 0
 1986 0000 0DC0A0E1 		mov	ip, sp
 1987              	.LCFI0:
 1988              		.cfi_def_cfa_register 12
 1989 0004 00D82DE9 		stmfd	sp!, {fp, ip, lr, pc}
 1990 0008 04B04CE2 		sub	fp, ip, #4
 1991              		.cfi_offset 14, -8
 1992              		.cfi_offset 13, -12
 1993              		.cfi_offset 11, -16
 1994              	.LCFI1:
 1995              		.cfi_def_cfa 11, 4
 1996 000c 08D04DE2 		sub	sp, sp, #8
 1997 0010 10000BE5 		str	r0, [fp, #-16]
 1998 0014 0130A0E1 		mov	r3, r1
 1999 0018 11304BE5 		strb	r3, [fp, #-17]
  11:../cola.c     **** 
  12:../cola.c     **** 	cola->elems = ((cola->elems == 4) ? cola->elems : cola->elems +1);
 2000              		.loc 1 12 0
 2001 001c 10301BE5 		ldr	r3, [fp, #-16]
 2002 0020 B430D3E1 		ldrh	r3, [r3, #4]
 2003 0024 040053E3 		cmp	r3, #4
 2004 0028 0200001A 		bne	.L2
 2005              		.loc 1 12 0 is_stmt 0 discriminator 1
 2006 002c 10301BE5 		ldr	r3, [fp, #-16]
 2007 0030 B430D3E1 		ldrh	r3, [r3, #4]
 2008 0034 040000EA 		b	.L3
 2009              	.L2:
 2010              		.loc 1 12 0 discriminator 2
 2011 0038 10301BE5 		ldr	r3, [fp, #-16]
 2012 003c B430D3E1 		ldrh	r3, [r3, #4]
 2013 0040 013083E2 		add	r3, r3, #1
 2014 0044 0338A0E1 		mov	r3, r3, asl #16
 2015 0048 2338A0E1 		mov	r3, r3, lsr #16
 2016              	.L3:
 2017              		.loc 1 12 0 discriminator 3
 2018 004c 10201BE5 		ldr	r2, [fp, #-16]
 2019 0050 B430C2E1 		strh	r3, [r2, #4]	@ movhi
  13:../cola.c     **** 	cola->vector = cola-> vector<<(8) | c;
 2020              		.loc 1 13 0 is_stmt 1 discriminator 3
 2021 0054 10301BE5 		ldr	r3, [fp, #-16]
 2022 0058 003093E5 		ldr	r3, [r3, #0]
 2023 005c 0324A0E1 		mov	r2, r3, asl #8
 2024 0060 11305BE5 		ldrb	r3, [fp, #-17]	@ zero_extendqisi2
 2025 0064 032082E1 		orr	r2, r2, r3
 2026 0068 10301BE5 		ldr	r3, [fp, #-16]
 2027 006c 002083E5 		str	r2, [r3, #0]
  14:../cola.c     **** }
 2028              		.loc 1 14 0 discriminator 3
 2029 0070 0CD04BE2 		sub	sp, fp, #12
 2030 0074 00689DE8 		ldmfd	sp, {fp, sp, lr}
 2031 0078 1EFF2FE1 		bx	lr
 2032              		.cfi_endproc
 2033              	.LFE0:
 2035              		.align	2
 2036              		.global	asigna
 2038              	asigna:
 2039              	.LFB1:
  15:../cola.c     **** 
  16:../cola.c     **** void asigna (tCola* izq, tCola der) {
 2040              		.loc 1 16 0
 2041              		.cfi_startproc
 2042              		@ Function supports interworking.
 2043              		@ args = 0, pretend = 0, frame = 16
 2044              		@ frame_needed = 1, uses_anonymous_args = 0
 2045 007c 0DC0A0E1 		mov	ip, sp
 2046              	.LCFI2:
 2047              		.cfi_def_cfa_register 12
 2048 0080 00D82DE9 		stmfd	sp!, {fp, ip, lr, pc}
 2049 0084 04B04CE2 		sub	fp, ip, #4
 2050              		.cfi_offset 14, -8
 2051              		.cfi_offset 13, -12
 2052              		.cfi_offset 11, -16
 2053              	.LCFI3:
 2054              		.cfi_def_cfa 11, 4
 2055 0088 10D04DE2 		sub	sp, sp, #16
 2056 008c 10000BE5 		str	r0, [fp, #-16]
 2057 0090 18304BE2 		sub	r3, fp, #24
 2058 0094 060083E8 		stmia	r3, {r1, r2}
  17:../cola.c     **** 	izq->vector = der.vector;
 2059              		.loc 1 17 0
 2060 0098 18201BE5 		ldr	r2, [fp, #-24]
 2061 009c 10301BE5 		ldr	r3, [fp, #-16]
 2062 00a0 002083E5 		str	r2, [r3, #0]
  18:../cola.c     **** 	izq->elems = 4;
 2063              		.loc 1 18 0
 2064 00a4 10301BE5 		ldr	r3, [fp, #-16]
 2065 00a8 0420A0E3 		mov	r2, #4
 2066 00ac B420C3E1 		strh	r2, [r3, #4]	@ movhi
  19:../cola.c     **** }
 2067              		.loc 1 19 0
 2068 00b0 0CD04BE2 		sub	sp, fp, #12
 2069 00b4 00689DE8 		ldmfd	sp, {fp, sp, lr}
 2070 00b8 1EFF2FE1 		bx	lr
 2071              		.cfi_endproc
 2072              	.LFE1:
 2074              		.align	2
 2075              		.global	muestra
 2077              	muestra:
 2078              	.LFB2:
  20:../cola.c     **** 
  21:../cola.c     **** void muestra(tCola cola) {
 2079              		.loc 1 21 0
 2080              		.cfi_startproc
 2081              		@ Function supports interworking.
 2082              		@ args = 0, pretend = 0, frame = 8
 2083              		@ frame_needed = 1, uses_anonymous_args = 0
 2084 00bc 0DC0A0E1 		mov	ip, sp
 2085              	.LCFI4:
 2086              		.cfi_def_cfa_register 12
 2087 00c0 00D82DE9 		stmfd	sp!, {fp, ip, lr, pc}
 2088 00c4 04B04CE2 		sub	fp, ip, #4
 2089              		.cfi_offset 14, -8
 2090              		.cfi_offset 13, -12
 2091              		.cfi_offset 11, -16
 2092              	.LCFI5:
 2093              		.cfi_def_cfa 11, 4
 2094 00c8 08D04DE2 		sub	sp, sp, #8
 2095 00cc 14304BE2 		sub	r3, fp, #20
 2096 00d0 030083E8 		stmia	r3, {r0, r1}
  22:../cola.c     **** //pasar el control al timer
  23:../cola.c     **** 	bufferDisplay = cola;
 2097              		.loc 1 23 0
 2098 00d4 34309FE5 		ldr	r3, .L7
 2099 00d8 14204BE2 		sub	r2, fp, #20
 2100 00dc 030092E8 		ldmia	r2, {r0, r1}
 2101 00e0 030083E8 		stmia	r3, {r0, r1}
  24:../cola.c     **** 	modo = 1;
 2102              		.loc 1 24 0
 2103 00e4 28309FE5 		ldr	r3, .L7+4
 2104 00e8 0120A0E3 		mov	r2, #1
 2105 00ec 002083E5 		str	r2, [r3, #0]
  25:../cola.c     **** 
  26:../cola.c     **** 	while(modo == 1) {}
 2106              		.loc 1 26 0
 2107 00f0 0000A0E1 		mov	r0, r0	@ nop
 2108              	.L6:
 2109              		.loc 1 26 0 is_stmt 0 discriminator 1
 2110 00f4 18309FE5 		ldr	r3, .L7+4
 2111 00f8 003093E5 		ldr	r3, [r3, #0]
 2112 00fc 010053E3 		cmp	r3, #1
 2113 0100 FBFFFF0A 		beq	.L6
  27:../cola.c     **** }
 2114              		.loc 1 27 0 is_stmt 1
 2115 0104 0CD04BE2 		sub	sp, fp, #12
 2116 0108 00689DE8 		ldmfd	sp, {fp, sp, lr}
 2117 010c 1EFF2FE1 		bx	lr
 2118              	.L8:
 2119              		.align	2
 2120              	.L7:
 2121 0110 00000000 		.word	bufferDisplay
 2122 0114 00000000 		.word	modo
 2123              		.cfi_endproc
 2124              	.LFE2:
 2126              	.Letext0: